target datalayout = "e-m:e-p270:32:32-p271:32:32-p272:64:64-i64:64-i128:128-f80:128-n8:16:32:64-S128"
target triple = "x86_64-pc-linux-gnu"

%struct._ir_insn = type { %struct.anon, %union.anon.6 }
%struct.anon = type { %union.anon.0, %union.anon.5 }
%union.anon.0 = type { i32 }
%union.anon.5 = type { i32 }
%union.anon.6 = type { %union._ir_val }
%union._ir_val = type { double }
%struct.anon.7 = type { i32, i32 }
%struct._ir_ctx = type { ptr, i32, i32, i32, i32, i32, i32, i32, i32, i32, i32, %struct._ir_insn, ptr, ptr, ptr, i32, i32, i32, ptr, ptr, ptr, ptr, ptr, i32, i32, i64, i32, i32, i32, i64, i32, i32, i32, i32, ptr, ptr, ptr, ptr, ptr, ptr, %union.anon.14, ptr, i32, i32, i32, i64, i32, i32, i32, ptr, ptr, ptr, ptr, %struct._ir_strtab, [61 x i32], [14 x i32] }
%union.anon.14 = type { ptr }
%struct._ir_strtab = type { ptr, i32, i32, i32, i32, ptr, i32, i32 }

; Function Attrs: nounwind uwtable
define internal void @ir_swap_ops(ptr noundef %0) #0 {
  %2 = alloca ptr, align 8
  %3 = alloca i32, align 4
  store ptr %0, ptr %2, align 8
  %4 = load ptr, ptr %2, align 8
  %5 = getelementptr inbounds %struct._ir_insn, ptr %4, i32 0, i32 0
  %6 = getelementptr inbounds %struct.anon, ptr %5, i32 0, i32 1
  %7 = load i32, ptr %6, align 4
  store i32 %7, ptr %3, align 4
  %8 = load ptr, ptr %2, align 8
  %9 = getelementptr inbounds %struct._ir_insn, ptr %8, i32 0, i32 1
  %10 = getelementptr inbounds %struct.anon.7, ptr %9, i32 0, i32 0
  %11 = load i32, ptr %10, align 8
  %12 = load ptr, ptr %2, align 8
  %13 = getelementptr inbounds %struct._ir_insn, ptr %12, i32 0, i32 0
  %14 = getelementptr inbounds %struct.anon, ptr %13, i32 0, i32 1
  store i32 %11, ptr %14, align 4
  %15 = load i32, ptr %3, align 4
  %16 = load ptr, ptr %2, align 8
  %17 = getelementptr inbounds %struct._ir_insn, ptr %16, i32 0, i32 1
  %18 = getelementptr inbounds %struct.anon.7, ptr %17, i32 0, i32 0
  store i32 %15, ptr %18, align 8
  ret void
}

; Function Attrs: nounwind uwtable
define internal zeroext i1 @ir_match_try_revert_lea_to_add(ptr noundef %0, i32 noundef %1) #0 {
  %3 = alloca i1, align 1
  %4 = alloca ptr, align 8
  %5 = alloca i32, align 4
  %6 = alloca ptr, align 8
  store ptr %0, ptr %4, align 8
  store i32 %1, ptr %5, align 4
  %7 = load ptr, ptr %4, align 8
  %8 = getelementptr inbounds %struct._ir_ctx, ptr %7, i32 0, i32 0
  %9 = load ptr, ptr %8, align 8
  %10 = load i32, ptr %5, align 4
  %11 = sext i32 %10 to i64
  %12 = getelementptr inbounds %struct._ir_insn, ptr %9, i64 %11
  store ptr %12, ptr %6, align 8
  %13 = load ptr, ptr %6, align 8
  %14 = getelementptr inbounds %struct._ir_insn, ptr %13, i32 0, i32 0
  %15 = getelementptr inbounds %struct.anon, ptr %14, i32 0, i32 1
  %16 = load i32, ptr %15, align 4
  %17 = load ptr, ptr %6, align 8
  %18 = getelementptr inbounds %struct._ir_insn, ptr %17, i32 0, i32 1
  %19 = getelementptr inbounds %struct.anon.7, ptr %18, i32 0, i32 0
  %20 = load i32, ptr %19, align 8
  %21 = icmp eq i32 %16, %20
  br i1 %21, label %22, label %23

22:                                               ; preds = %2
  br label %56

23:                                               ; preds = %2
  %24 = load ptr, ptr %4, align 8
  %25 = load ptr, ptr %6, align 8
  %26 = getelementptr inbounds %struct._ir_insn, ptr %25, i32 0, i32 1
  %27 = getelementptr inbounds %struct.anon.7, ptr %26, i32 0, i32 0
  %28 = load i32, ptr %27, align 8
  %29 = load i32, ptr %5, align 4
  %30 = call zeroext i1 @ir_match_try_fuse_load(ptr noundef %24, i32 noundef %28, i32 noundef %29)
  br i1 %30, label %31, label %38

31:                                               ; preds = %23
  %32 = load ptr, ptr %4, align 8
  %33 = getelementptr inbounds %struct._ir_ctx, ptr %32, i32 0, i32 21
  %34 = load ptr, ptr %33, align 8
  %35 = load i32, ptr %5, align 4
  %36 = sext i32 %35 to i64
  %37 = getelementptr inbounds i32, ptr %34, i64 %36
  store i32 134217868, ptr %37, align 4
  store i1 true, ptr %3, align 1
  br label %57

38:                                               ; preds = %23
  %39 = load ptr, ptr %4, align 8
  %40 = load ptr, ptr %6, align 8
  %41 = getelementptr inbounds %struct._ir_insn, ptr %40, i32 0, i32 0
  %42 = getelementptr inbounds %struct.anon, ptr %41, i32 0, i32 1
  %43 = load i32, ptr %42, align 4
  %44 = load i32, ptr %5, align 4
  %45 = call zeroext i1 @ir_match_try_fuse_load(ptr noundef %39, i32 noundef %43, i32 noundef %44)
  br i1 %45, label %46, label %54

46:                                               ; preds = %38
  %47 = load ptr, ptr %6, align 8
  call void @ir_swap_ops(ptr noundef %47)
  %48 = load ptr, ptr %4, align 8
  %49 = getelementptr inbounds %struct._ir_ctx, ptr %48, i32 0, i32 21
  %50 = load ptr, ptr %49, align 8
  %51 = load i32, ptr %5, align 4
  %52 = sext i32 %51 to i64
  %53 = getelementptr inbounds i32, ptr %50, i64 %52
  store i32 134217868, ptr %53, align 4
  store i1 true, ptr %3, align 1
  br label %57

54:                                               ; preds = %38
  br label %55

55:                                               ; preds = %54
  br label %56

56:                                               ; preds = %55, %22
  store i1 false, ptr %3, align 1
  br label %57

57:                                               ; preds = %56, %46, %31
  %58 = load i1, ptr %3, align 1
  ret i1 %58
}