; Function Attrs: nounwind uwtable
define internal fastcc noundef zeroext i1 @ir_match_try_revert_lea_to_add(ptr noundef %0, i32 noundef %1) unnamed_addr #1 {
  %3 = load ptr, ptr %0, align 8
  %4 = sext i32 %1 to i64
  %5 = getelementptr inbounds %struct._ir_insn, ptr %3, i64 %4
  %6 = getelementptr inbounds i8, ptr %5, i64 4
  %7 = load i32, ptr %6, align 4
  %8 = getelementptr inbounds i8, ptr %5, i64 8
  %9 = load i32, ptr %8, align 8
  %10 = icmp eq i32 %7, %9
  br i1 %10, label %22, label %11

11:                                               ; preds = %2
  %12 = tail call fastcc zeroext i1 @ir_match_try_fuse_load(ptr noundef nonnull %0, i32 noundef %9, i32 noundef %1)
  br i1 %12, label %.sink.split, label %13

13:                                               ; preds = %11
  %14 = load i32, ptr %6, align 4
  %15 = tail call fastcc zeroext i1 @ir_match_try_fuse_load(ptr noundef nonnull %0, i32 noundef %14, i32 noundef %1)
  br i1 %15, label %16, label %22

16:                                               ; preds = %13
  %17 = load <2 x i32>, ptr %6, align 4
  %18 = shufflevector <2 x i32> %17, <2 x i32> poison, <2 x i32> <i32 1, i32 0>
  store <2 x i32> %18, ptr %6, align 4
  br label %.sink.split

.sink.split:                                      ; preds = %11, %16
  %19 = getelementptr inbounds i8, ptr %0, i64 128
  %20 = load ptr, ptr %19, align 8
  %21 = getelementptr inbounds i32, ptr %20, i64 %4
  store i32 134217868, ptr %21, align 4
  br label %22

22:                                               ; preds = %.sink.split, %2, %13
  %.0 = phi i1 [ false, %13 ], [ false, %2 ], [ true, %.sink.split ]
  ret i1 %.0
}